; ModuleID = 'source-C-CXX/29/53.c'
source_filename = "source-C-CXX/29/53.c"
target datalayout = "e-m:e-p270:32:32-p271:32:32-p272:64:64-i64:64-f80:128-n8:16:32:64-S128"
target triple = "x86_64-pc-linux-gnu"

@.str = private unnamed_addr constant [3 x i8] c"%d\00", align 1
@.str.1 = private unnamed_addr constant [4 x i8] c"%d\0A\00", align 1

; Function Attrs: nofree nounwind sspstrong uwtable
define dso_local void @main() local_unnamed_addr #0 {
  %1 = alloca i32, align 4
  %2 = bitcast i32* %1 to i8*
  call void @llvm.lifetime.start.p0i8(i64 4, i8* nonnull %2) #3
  %3 = call i32 (i8*, ...) @__isoc99_scanf(i8* getelementptr inbounds ([3 x i8], [3 x i8]* @.str, i64 0, i64 0), i32* nonnull %1)
  %4 = load i32, i32* %1, align 4, !tbaa !5
  %5 = icmp slt i32 %4, 1
  br i1 %5, label %32, label %6

6:                                                ; preds = %0
  %7 = add nuw i32 %4, 1
  %8 = zext i32 %7 to i64
  br label %9

9:                                                ; preds = %6, %9
  %10 = phi i64 [ 1, %6 ], [ %30, %9 ]
  %11 = phi i64 [ 0, %6 ], [ %29, %9 ]
  %12 = trunc i64 %10 to i32
  %13 = udiv i32 %12, 7
  %14 = zext i32 %13 to i64
  %15 = mul nuw nsw i64 %14, 7
  %16 = shl i64 %10, 32
  %17 = ashr exact i64 %16, 32
  %18 = icmp eq i64 %15, %17
  %19 = urem i32 %12, 10
  %20 = icmp eq i32 %19, 7
  %21 = or i1 %20, %18
  %22 = trunc i64 %10 to i32
  %23 = add i32 %22, -70
  %24 = icmp ult i32 %23, 10
  %25 = select i1 %21, i1 true, i1 %24
  %26 = mul i64 %10, %10
  %27 = and i64 %26, 4294967295
  %28 = select i1 %25, i64 0, i64 %27
  %29 = add nuw nsw i64 %28, %11
  %30 = add nuw nsw i64 %10, 1
  %31 = icmp eq i64 %30, %8
  br i1 %31, label %32, label %9, !llvm.loop !9

32:                                               ; preds = %9, %0
  %33 = phi i64 [ 0, %0 ], [ %29, %9 ]
  %34 = call i32 (i8*, ...) @printf(i8* nonnull dereferenceable(1) getelementptr inbounds ([4 x i8], [4 x i8]* @.str.1, i64 0, i64 0), i64 %33)
  call void @llvm.lifetime.end.p0i8(i64 4, i8* nonnull %2) #3
  ret void
}

; Function Attrs: argmemonly mustprogress nofree nosync nounwind willreturn
declare void @llvm.lifetime.start.p0i8(i64 immarg, i8* nocapture) #1

; Function Attrs: nofree nounwind
declare noundef i32 @__isoc99_scanf(i8* nocapture noundef readonly, ...) local_unnamed_addr #2

; Function Attrs: nofree nounwind
declare noundef i32 @printf(i8* nocapture noundef readonly, ...) local_unnamed_addr #2

; Function Attrs: argmemonly mustprogress nofree nosync nounwind willreturn
declare void @llvm.lifetime.end.p0i8(i64 immarg, i8* nocapture) #1


!llvm.module.flags = !{!0, !1, !2, !3}
!llvm.ident = !{!4}

!0 = !{i32 1, !"wchar_size", i32 4}
!1 = !{i32 7, !"PIC Level", i32 2}
!2 = !{i32 7, !"PIE Level", i32 2}
!3 = !{i32 7, !"uwtable", i32 1}
!4 = !{!"clang version 13.0.0"}
!5 = !{!6, !6, i64 0}
!6 = !{!"int", !7, i64 0}
!7 = !{!"omnipotent char", !8, i64 0}
!8 = !{!"Simple C/C++ TBAA"}
!9 = distinct !{!9, !10}
!10 = !{!"llvm.loop.mustprogress"}
